; Function Attrs: mustprogress uwtable
define void @_ZN5tsi_t9send_wordEj(ptr noundef nonnull align 8 dereferenceable(912) %0, i32 noundef %1) local_unnamed_addr #3 align 2 {
  %3 = alloca i32, align 4
  store i32 %1, ptr %3, align 4, !tbaa !101
  %4 = getelementptr inbounds nuw i8, ptr %0, i64 880
  %5 = load ptr, ptr %4, align 8, !tbaa !102
  %6 = getelementptr inbounds nuw i8, ptr %0, i64 896
  %7 = load ptr, ptr %6, align 8, !tbaa !103
  %8 = getelementptr inbounds i8, ptr %7, i64 -4
  %.not.i = icmp eq ptr %5, %8
  br i1 %.not.i, label %11, label %9

9:                                                ; preds = %2
  store i32 %1, ptr %5, align 4, !tbaa !101
  %10 = getelementptr inbounds nuw i8, ptr %5, i64 4
  store ptr %10, ptr %4, align 8, !tbaa !102
  br label %_ZNSt5dequeIjSaIjEE9push_backERKj.exit

11:                                               ; preds = %2
  %12 = getelementptr inbounds nuw i8, ptr %0, i64 832
  call void @_ZNSt5dequeIjSaIjEE16_M_push_back_auxIJRKjEEEvDpOT_(ptr noundef nonnull align 8 dereferenceable(80) %12, ptr noundef nonnull align 4 dereferenceable(4) %3)
  br label %_ZNSt5dequeIjSaIjEE9push_backERKj.exit

_ZNSt5dequeIjSaIjEE9push_backERKj.exit:           ; preds = %9, %11
  ret void
}